target datalayout = "e-m:e-p270:32:32-p271:32:32-p272:64:64-i64:64-i128:128-f80:128-n8:16:32:64-S128"
target triple = "x86_64-unknown-linux-gnu"

%struct.QemuMutex = type { %union.pthread_mutex_t, i8 }
%union.pthread_mutex_t = type { %struct.__pthread_mutex_s }
%struct.__pthread_mutex_s = type { i32, i32, i32, i32, i32, i16, i16, %struct.__pthread_internal_list }
%struct.__pthread_internal_list = type { ptr, ptr }
%struct.RAMList = type { %struct.QemuMutex, ptr, %struct.anon.0, [3 x ptr], i32, %struct.anon.1 }
%struct.anon.0 = type { ptr }
%struct.anon.1 = type { ptr }
%struct.RAMState = type { [2 x %struct.PageSearchStatus], i32, i64, ptr, i64, i32, i32, i64, i64, i64, i64, i64, i64, i8, i8, i64, i64, i64, %struct.QemuMutex, ptr, %struct.QemuMutex, %struct.anon.5, i32 }
%struct.PageSearchStatus = type { ptr, ptr, ptr, i64, i8, i8, i64, i64 }
%struct.anon.5 = type { ptr, ptr }

@ram_list = external global %struct.RAMList, align 8
@.str.61 = private unnamed_addr constant [23 x i8] c"%s: Init ramstate fail\00", align 1
@__func__.ram_state_init = private unnamed_addr constant [15 x i8] c"ram_state_init\00", align 1

; Function Attrs: nounwind sspstrong uwtable
define internal void @ram_state_reset(ptr noundef %rs) #0 {
entry:
  %rs.addr = alloca ptr, align 8
  %i = alloca i32, align 4
  store ptr %rs, ptr %rs.addr, align 8
  store i32 0, ptr %i, align 4
  br label %for.cond

for.cond:                                         ; preds = %for.inc, %entry
  %0 = load i32, ptr %i, align 4
  %cmp = icmp slt i32 %0, 2
  br i1 %cmp, label %for.body, label %for.end

for.body:                                         ; preds = %for.cond
  %1 = load ptr, ptr %rs.addr, align 8
  %pss = getelementptr inbounds %struct.RAMState, ptr %1, i32 0, i32 0
  %2 = load i32, ptr %i, align 4
  %idxprom = sext i32 %2 to i64
  %arrayidx = getelementptr [2 x %struct.PageSearchStatus], ptr %pss, i64 0, i64 %idxprom
  %last_sent_block = getelementptr inbounds %struct.PageSearchStatus, ptr %arrayidx, i32 0, i32 1
  store ptr null, ptr %last_sent_block, align 8
  br label %for.inc

for.inc:                                          ; preds = %for.body
  %3 = load i32, ptr %i, align 4
  %inc = add i32 %3, 1
  store i32 %inc, ptr %i, align 4
  br label %for.cond, !llvm.loop !84

for.end:                                          ; preds = %for.cond
  %4 = load ptr, ptr %rs.addr, align 8
  %last_seen_block = getelementptr inbounds %struct.RAMState, ptr %4, i32 0, i32 3
  store ptr null, ptr %last_seen_block, align 8
  %5 = load ptr, ptr %rs.addr, align 8
  %last_page = getelementptr inbounds %struct.RAMState, ptr %5, i32 0, i32 4
  store i64 0, ptr %last_page, align 8
  %6 = getelementptr inbounds %struct.RAMList, ptr @ram_list, i32 0, i32 4
  %7 = load i32, ptr %6, align 8
  %8 = load ptr, ptr %rs.addr, align 8
  %last_version = getelementptr inbounds %struct.RAMState, ptr %8, i32 0, i32 5
  store i32 %7, ptr %last_version, align 8
  %9 = load ptr, ptr %rs.addr, align 8
  %xbzrle_started = getelementptr inbounds %struct.RAMState, ptr %9, i32 0, i32 13
  store i8 0, ptr %xbzrle_started, align 8
  ret void
}

; Function Attrs: nounwind sspstrong uwtable
define internal i32 @ram_state_init(ptr noundef %rsp) #0 {
entry:
  %retval = alloca i32, align 4
  %rsp.addr = alloca ptr, align 8
  store ptr %rsp, ptr %rsp.addr, align 8
  %call = call noalias ptr @g_try_malloc0_n(i64 noundef 1, i64 noundef 360) #16
  %0 = load ptr, ptr %rsp.addr, align 8
  store ptr %call, ptr %0, align 8
  %1 = load ptr, ptr %rsp.addr, align 8
  %2 = load ptr, ptr %1, align 8
  %tobool = icmp ne ptr %2, null
  br i1 %tobool, label %if.end, label %if.then

if.then:                                          ; preds = %entry
  call void (ptr, ...) @error_report(ptr noundef @.str.61, ptr noundef @__func__.ram_state_init)
  store i32 -1, ptr %retval, align 4
  br label %return

if.end:                                           ; preds = %entry
  %3 = load ptr, ptr %rsp.addr, align 8
  %4 = load ptr, ptr %3, align 8
  %bitmap_mutex = getelementptr inbounds %struct.RAMState, ptr %4, i32 0, i32 18
  call void @qemu_mutex_init(ptr noundef %bitmap_mutex)
  %5 = load ptr, ptr %rsp.addr, align 8
  %6 = load ptr, ptr %5, align 8
  %src_page_req_mutex = getelementptr inbounds %struct.RAMState, ptr %6, i32 0, i32 20
  call void @qemu_mutex_init(ptr noundef %src_page_req_mutex)
  br label %do.body

do.body:                                          ; preds = %if.end
  %7 = load ptr, ptr %rsp.addr, align 8
  %8 = load ptr, ptr %7, align 8
  %src_page_requests = getelementptr inbounds %struct.RAMState, ptr %8, i32 0, i32 21
  %sqh_first = getelementptr inbounds %struct.anon.5, ptr %src_page_requests, i32 0, i32 0
  store ptr null, ptr %sqh_first, align 8
  %9 = load ptr, ptr %rsp.addr, align 8
  %10 = load ptr, ptr %9, align 8
  %src_page_requests1 = getelementptr inbounds %struct.RAMState, ptr %10, i32 0, i32 21
  %sqh_first2 = getelementptr inbounds %struct.anon.5, ptr %src_page_requests1, i32 0, i32 0
  %11 = load ptr, ptr %rsp.addr, align 8
  %12 = load ptr, ptr %11, align 8
  %src_page_requests3 = getelementptr inbounds %struct.RAMState, ptr %12, i32 0, i32 21
  %sqh_last = getelementptr inbounds %struct.anon.5, ptr %src_page_requests3, i32 0, i32 1
  store ptr %sqh_first2, ptr %sqh_last, align 8
  br label %do.end

do.end:                                           ; preds = %do.body
  %call4 = call i64 @ram_bytes_total()
  %13 = load ptr, ptr %rsp.addr, align 8
  %14 = load ptr, ptr %13, align 8
  %ram_bytes_total = getelementptr inbounds %struct.RAMState, ptr %14, i32 0, i32 2
  store i64 %call4, ptr %ram_bytes_total, align 8
  %15 = load ptr, ptr %rsp.addr, align 8
  %16 = load ptr, ptr %15, align 8
  %ram_bytes_total5 = getelementptr inbounds %struct.RAMState, ptr %16, i32 0, i32 2
  %17 = load i64, ptr %ram_bytes_total5, align 8
  %shr = lshr i64 %17, 12
  %18 = load ptr, ptr %rsp.addr, align 8
  %19 = load ptr, ptr %18, align 8
  %migration_dirty_pages = getelementptr inbounds %struct.RAMState, ptr %19, i32 0, i32 17
  store i64 %shr, ptr %migration_dirty_pages, align 8
  %20 = load ptr, ptr %rsp.addr, align 8
  %21 = load ptr, ptr %20, align 8
  call void @ram_state_reset(ptr noundef %21)
  store i32 0, ptr %retval, align 4
  br label %return

return:                                           ; preds = %do.end, %if.then
  %22 = load i32, ptr %retval, align 4
  ret i32 %22
}