; Function Attrs: nounwind sspstrong uwtable
define internal fastcc range(i32 -1, 1) i32 @ram_state_init(ptr noundef captures(none) initializes((0, 8)) %rsp) unnamed_addr #0 {
entry:
  %call = tail call noalias dereferenceable_or_null(360) ptr @g_try_malloc0_n(i64 noundef 1, i64 noundef 360) #22
  store ptr %call, ptr %rsp, align 8
  %tobool.not = icmp eq ptr %call, null
  br i1 %tobool.not, label %if.then, label %if.end

if.then:                                          ; preds = %entry
  tail call void (ptr, ...) @error_report(ptr noundef nonnull @.str.61, ptr noundef nonnull @__func__.ram_state_init) #18
  br label %return

if.end:                                           ; preds = %entry
  %bitmap_mutex = getelementptr inbounds nuw i8, ptr %call, i64 232
  tail call void @qemu_mutex_init(ptr noundef nonnull %bitmap_mutex) #18
  %0 = load ptr, ptr %rsp, align 8
  %src_page_req_mutex = getelementptr inbounds nuw i8, ptr %0, i64 288
  tail call void @qemu_mutex_init(ptr noundef nonnull %src_page_req_mutex) #18
  %1 = load ptr, ptr %rsp, align 8
  %src_page_requests = getelementptr inbounds nuw i8, ptr %1, i64 336
  store ptr null, ptr %src_page_requests, align 8
  %2 = load ptr, ptr %rsp, align 8
  %src_page_requests1 = getelementptr inbounds nuw i8, ptr %2, i64 336
  %sqh_last = getelementptr inbounds nuw i8, ptr %2, i64 344
  store ptr %src_page_requests1, ptr %sqh_last, align 8
  %call4 = tail call i64 @ram_bytes_total()
  %3 = load ptr, ptr %rsp, align 8
  %ram_bytes_total = getelementptr inbounds nuw i8, ptr %3, i64 120
  store i64 %call4, ptr %ram_bytes_total, align 8
  %4 = load ptr, ptr %rsp, align 8
  %ram_bytes_total5 = getelementptr inbounds nuw i8, ptr %4, i64 120
  %5 = load i64, ptr %ram_bytes_total5, align 8
  %shr = lshr i64 %5, 12
  %migration_dirty_pages = getelementptr inbounds nuw i8, ptr %4, i64 224
  store i64 %shr, ptr %migration_dirty_pages, align 8
  %6 = load ptr, ptr %rsp, align 8
  %last_sent_block.i = getelementptr i8, ptr %6, i64 8
  store ptr null, ptr %last_sent_block.i, align 8
  %last_sent_block.i.c = getelementptr i8, ptr %6, i64 64
  store ptr null, ptr %last_sent_block.i.c, align 8
  %last_seen_block.i = getelementptr inbounds nuw i8, ptr %6, i64 128
  tail call void @llvm.memset.p0.i64(ptr noundef nonnull align 8 dereferenceable(16) %last_seen_block.i, i8 0, i64 16, i1 false)
  %7 = load i32, ptr getelementptr inbounds nuw (i8, ptr @ram_list, i64 88), align 8
  %last_version.i = getelementptr inbounds nuw i8, ptr %6, i64 144
  store i32 %7, ptr %last_version.i, align 8
  %xbzrle_started.i = getelementptr inbounds nuw i8, ptr %6, i64 200
  store i8 0, ptr %xbzrle_started.i, align 8
  br label %return

return:                                           ; preds = %if.end, %if.then
  %retval.0 = phi i32 [ 0, %if.end ], [ -1, %if.then ]
  ret i32 %retval.0
}